; Function Attrs: mustprogress nofree nounwind willreturn memory(write) uwtable
define internal float @avifToLinear709(float noundef %0) #5 {
  %2 = fcmp olt float %0, 0.000000e+00
  br i1 %2, label %13, label %3

3:                                                ; preds = %1
  %4 = fcmp olt float %0, 0x3FB4CC5500000000
  br i1 %4, label %5, label %7

5:                                                ; preds = %3
  %6 = fdiv float %0, 4.500000e+00
  br label %13

7:                                                ; preds = %3
  %8 = fcmp olt float %0, 1.000000e+00
  br i1 %8, label %9, label %13

9:                                                ; preds = %7
  %10 = fadd float %0, 0x3FB96B8440000000
  %11 = fdiv float %10, 0x3FF196B840000000
  %12 = tail call float @powf(float noundef %11, float noundef 0x4001C71C80000000) #9
  br label %13

13:                                               ; preds = %7, %1, %9, %5
  %.0 = phi float [ %6, %5 ], [ %12, %9 ], [ 0.000000e+00, %1 ], [ 1.000000e+00, %7 ]
  ret float %.0
}